target datalayout = "e-m:e-p270:32:32-p271:32:32-p272:64:64-i64:64-i128:128-f80:128-n8:16:32:64-S128"
target triple = "x86_64-pc-linux-gnu"

%"class.zmq::msg_t" = type { %union.anon }
%union.anon = type { %struct.anon }
%struct.anon = type { ptr, [34 x i8], i8, i8, i32, %"union.zmq::msg_t::group_t" }
%"union.zmq::msg_t::group_t" = type { %struct.anon.1 }
%struct.anon.1 = type { i8, ptr }
%"class.zmq::pipe_t" = type { %"class.zmq::object_t.base", [4 x i8], %"class.zmq::array_item_t.base", [4 x i8], %"class.zmq::array_item_t.base.11", [4 x i8], %"class.zmq::array_item_t.base.13", ptr, ptr, i8, i8, i32, i32, i32, i32, i64, i64, i64, ptr, ptr, i32, i8, [3 x i8], %"struct.zmq::blob_t", i32, i8, [3 x i8], %"struct.zmq::endpoint_uri_pair_t", %"class.zmq::msg_t" }
%"class.zmq::object_t.base" = type <{ ptr, ptr, i32 }>
%"class.zmq::array_item_t.base" = type <{ ptr, i32 }>
%"class.zmq::array_item_t.base.11" = type <{ ptr, i32 }>
%"class.zmq::array_item_t.base.13" = type <{ ptr, i32 }>
%"struct.zmq::blob_t" = type <{ ptr, i64, i8, [7 x i8] }>
%"struct.zmq::endpoint_uri_pair_t" = type <{ %"class.std::__cxx11::basic_string", %"class.std::__cxx11::basic_string", i32, [4 x i8] }>
%"class.std::__cxx11::basic_string" = type { %"struct.std::__cxx11::basic_string<char>::_Alloc_hider", i64, %union.anon.14 }
%"struct.std::__cxx11::basic_string<char>::_Alloc_hider" = type { ptr }
%union.anon.14 = type { i64, [8 x i8] }

; Function Attrs: mustprogress nounwind uwtable
define noundef zeroext i1 @_ZNK3zmq6pipe_t9check_hwmEv(ptr noundef nonnull align 8 dereferenceable(328) %0) #9 align 2 {
  %2 = alloca ptr, align 8
  %3 = alloca i8, align 1
  store ptr %0, ptr %2, align 8, !tbaa !27
  %4 = load ptr, ptr %2, align 8
  call void @llvm.lifetime.start.p0(i64 1, ptr %3) #17
  %5 = getelementptr inbounds nuw %"class.zmq::pipe_t", ptr %4, i32 0, i32 11
  %6 = load i32, ptr %5, align 4, !tbaa !119
  %7 = icmp sgt i32 %6, 0
  br i1 %7, label %8, label %18

8:                                                ; preds = %1
  %9 = getelementptr inbounds nuw %"class.zmq::pipe_t", ptr %4, i32 0, i32 16
  %10 = load i64, ptr %9, align 8, !tbaa !109
  %11 = getelementptr inbounds nuw %"class.zmq::pipe_t", ptr %4, i32 0, i32 17
  %12 = load i64, ptr %11, align 8, !tbaa !124
  %13 = sub i64 %10, %12
  %14 = getelementptr inbounds nuw %"class.zmq::pipe_t", ptr %4, i32 0, i32 11
  %15 = load i32, ptr %14, align 4, !tbaa !119
  %16 = sext i32 %15 to i64
  %17 = icmp uge i64 %13, %16
  br label %18

18:                                               ; preds = %8, %1
  %19 = phi i1 [ false, %1 ], [ %17, %8 ]
  %20 = zext i1 %19 to i8
  store i8 %20, ptr %3, align 1, !tbaa !15
  %21 = load i8, ptr %3, align 1, !tbaa !15, !range !17, !noundef !18
  %22 = trunc i8 %21 to i1
  %23 = xor i1 %22, true
  call void @llvm.lifetime.end.p0(i64 1, ptr %3) #17
  ret i1 %23
}

; Function Attrs: mustprogress uwtable
define noundef zeroext i1 @_ZN3zmq6pipe_t11check_writeEv(ptr noundef nonnull align 8 dereferenceable(328) %0) #0 align 2 {
  %2 = alloca i1, align 1
  %3 = alloca ptr, align 8
  %4 = alloca i8, align 1
  %5 = alloca i32, align 4
  store ptr %0, ptr %3, align 8, !tbaa !27
  %6 = load ptr, ptr %3, align 8
  %7 = getelementptr inbounds nuw %"class.zmq::pipe_t", ptr %6, i32 0, i32 10
  %8 = load i8, ptr %7, align 1, !tbaa !118, !range !17, !noundef !18
  %9 = trunc i8 %8 to i1
  br i1 %9, label %10, label %14

10:                                               ; preds = %1
  %11 = getelementptr inbounds nuw %"class.zmq::pipe_t", ptr %6, i32 0, i32 20
  %12 = load i32, ptr %11, align 8, !tbaa !110
  %13 = icmp ne i32 %12, 0
  br label %14

14:                                               ; preds = %10, %1
  %15 = phi i1 [ true, %1 ], [ %13, %10 ]
  %16 = zext i1 %15 to i64
  %17 = call i64 @llvm.expect.i64(i64 %16, i64 0)
  %18 = icmp ne i64 %17, 0
  br i1 %18, label %19, label %20

19:                                               ; preds = %14
  store i1 false, ptr %2, align 1
  br label %33

20:                                               ; preds = %14
  call void @llvm.lifetime.start.p0(i64 1, ptr %4) #17
  %21 = call noundef zeroext i1 @_ZNK3zmq6pipe_t9check_hwmEv(ptr noundef nonnull align 8 dereferenceable(328) %6)
  %22 = xor i1 %21, true
  %23 = zext i1 %22 to i8
  store i8 %23, ptr %4, align 1, !tbaa !15
  %24 = load i8, ptr %4, align 1, !tbaa !15, !range !17, !noundef !18
  %25 = trunc i8 %24 to i1
  %26 = zext i1 %25 to i64
  %27 = call i64 @llvm.expect.i64(i64 %26, i64 0)
  %28 = icmp ne i64 %27, 0
  br i1 %28, label %29, label %31

29:                                               ; preds = %20
  %30 = getelementptr inbounds nuw %"class.zmq::pipe_t", ptr %6, i32 0, i32 10
  store i8 0, ptr %30, align 1, !tbaa !118
  store i1 false, ptr %2, align 1
  store i32 1, ptr %5, align 4
  br label %32

31:                                               ; preds = %20
  store i1 true, ptr %2, align 1
  store i32 1, ptr %5, align 4
  br label %32

32:                                               ; preds = %31, %29
  call void @llvm.lifetime.end.p0(i64 1, ptr %4) #17
  br label %33

33:                                               ; preds = %32, %19
  %34 = load i1, ptr %2, align 1
  ret i1 %34
}