; Function Attrs: mustprogress nofree norecurse nosync nounwind willreturn memory(argmem: readwrite) uwtable
define noundef zeroext i1 @_ZN3zmq6pipe_t11check_writeEv(ptr noundef nonnull align 8 captures(none) dereferenceable(328) %0) local_unnamed_addr #17 align 2 {
  %2 = getelementptr inbounds nuw i8, ptr %0, i64 89
  %3 = load i8, ptr %2, align 1, !tbaa !101, !range !7, !noundef !8
  %4 = trunc nuw i8 %3 to i1
  %5 = getelementptr inbounds nuw i8, ptr %0, i64 152
  %6 = load i32, ptr %5, align 8
  %7 = icmp eq i32 %6, 0
  %.not2 = select i1 %4, i1 %7, i1 false
  br i1 %.not2, label %8, label %21, !prof !47

8:                                                ; preds = %1
  %9 = getelementptr inbounds nuw i8, ptr %0, i64 92
  %10 = load i32, ptr %9, align 4, !tbaa !102
  %11 = icmp slt i32 %10, 1
  %12 = getelementptr inbounds nuw i8, ptr %0, i64 120
  %13 = load i64, ptr %12, align 8
  %14 = getelementptr inbounds nuw i8, ptr %0, i64 128
  %15 = load i64, ptr %14, align 8
  %16 = sub i64 %13, %15
  %17 = zext nneg i32 %10 to i64
  %18 = icmp ult i64 %16, %17
  %19 = select i1 %11, i1 true, i1 %18
  br i1 %19, label %21, label %20, !prof !47

20:                                               ; preds = %8
  store i8 0, ptr %2, align 1, !tbaa !101
  br label %21

21:                                               ; preds = %20, %8, %1
  %.0 = phi i1 [ false, %1 ], [ true, %8 ], [ false, %20 ]
  ret i1 %.0
}